target datalayout = "e-m:e-p270:32:32-p271:32:32-p272:64:64-i64:64-i128:128-f80:128-n8:16:32:64-S128"
target triple = "x86_64-pc-linux-gnu"

; Function Attrs: nounwind uwtable
define void @updataInfo(i32 noundef %0, i32 noundef %1, i32 noundef %2, ptr noundef %3, ptr noundef %4) #0 {
  %6 = alloca i32, align 4
  %7 = alloca i32, align 4
  %8 = alloca i32, align 4
  %9 = alloca ptr, align 8
  %10 = alloca ptr, align 8
  store i32 %0, ptr %6, align 4, !tbaa !8
  store i32 %1, ptr %7, align 4, !tbaa !8
  store i32 %2, ptr %8, align 4, !tbaa !8
  store ptr %3, ptr %9, align 8, !tbaa !10
  store ptr %4, ptr %10, align 8, !tbaa !12
  %11 = load ptr, ptr %9, align 8, !tbaa !10
  %12 = load ptr, ptr %10, align 8, !tbaa !12
  %13 = load i32, ptr %12, align 4, !tbaa !8
  %14 = load i32, ptr %8, align 4, !tbaa !8
  %15 = load i32, ptr %6, align 4, !tbaa !8
  %16 = load i32, ptr %7, align 4, !tbaa !8
  %17 = sub nsw i32 %15, %16
  %18 = call i32 @llvm.abs.i32(i32 %17, i1 true)
  %19 = sub nsw i32 %18, 1
  %20 = shl i32 %19, 2
  %21 = load i32, ptr %6, align 4, !tbaa !8
  %22 = add nsw i32 %20, %21
  %23 = call i32 @adjustInfoAfterSwap(ptr noundef %11, i32 noundef %13, i32 noundef %14, i32 noundef %22)
  %24 = load ptr, ptr %10, align 8, !tbaa !12
  store i32 %23, ptr %24, align 4, !tbaa !8
  ret void
}

; Function Attrs: inlinehint nounwind uwtable
define internal i32 @CompareWords(i64 noundef %0, i64 noundef %1) #5 {
  %3 = alloca i32, align 4
  %4 = alloca i64, align 8
  %5 = alloca i64, align 8
  store i64 %0, ptr %4, align 8, !tbaa !18
  store i64 %1, ptr %5, align 8, !tbaa !18
  %6 = load i64, ptr %4, align 8, !tbaa !18
  %7 = load i64, ptr %5, align 8, !tbaa !18
  %8 = icmp ugt i64 %6, %7
  br i1 %8, label %9, label %10

9:                                                ; preds = %2
  store i32 1, ptr %3, align 4
  br label %16

10:                                               ; preds = %2
  %11 = load i64, ptr %4, align 8, !tbaa !18
  %12 = load i64, ptr %5, align 8, !tbaa !18
  %13 = icmp ult i64 %11, %12
  br i1 %13, label %14, label %15

14:                                               ; preds = %10
  store i32 -1, ptr %3, align 4
  br label %16

15:                                               ; preds = %10
  store i32 0, ptr %3, align 4
  br label %16

16:                                               ; preds = %15, %14, %9
  %17 = load i32, ptr %3, align 4
  ret i32 %17
}

; Function Attrs: nounwind uwtable
define void @arrangeQuoters_superFast_iVar5(ptr noundef %0, ptr noundef %1, i32 noundef %2, i32 noundef %3, i32 noundef %4, i32 noundef %5, i32 noundef %6, ptr noundef %7, ptr noundef %8) #0 {
  %10 = alloca ptr, align 8
  %11 = alloca ptr, align 8
  %12 = alloca i32, align 4
  %13 = alloca i32, align 4
  %14 = alloca i32, align 4
  %15 = alloca i32, align 4
  %16 = alloca i32, align 4
  %17 = alloca ptr, align 8
  %18 = alloca ptr, align 8
  %19 = alloca i32, align 4
  %20 = alloca i32, align 4
  %21 = alloca i32, align 4
  %22 = alloca ptr, align 8
  %23 = alloca i32, align 4
  store ptr %0, ptr %10, align 8, !tbaa !12
  store ptr %1, ptr %11, align 8, !tbaa !12
  store i32 %2, ptr %12, align 4, !tbaa !8
  store i32 %3, ptr %13, align 4, !tbaa !8
  store i32 %4, ptr %14, align 4, !tbaa !8
  store i32 %5, ptr %15, align 4, !tbaa !8
  store i32 %6, ptr %16, align 4, !tbaa !8
  store ptr %7, ptr %17, align 8, !tbaa !10
  store ptr %8, ptr %18, align 8, !tbaa !12
  call void @llvm.lifetime.start.p0(i64 4, ptr %19) #7
  call void @llvm.lifetime.start.p0(i64 4, ptr %20) #7
  call void @llvm.lifetime.start.p0(i64 4, ptr %21) #7
  call void @llvm.lifetime.start.p0(i64 8, ptr %22) #7
  %24 = load ptr, ptr %11, align 8, !tbaa !12
  %25 = load i32, ptr %12, align 4, !tbaa !8
  %26 = sext i32 %25 to i64
  %27 = getelementptr inbounds i32, ptr %24, i64 %26
  store ptr %27, ptr %22, align 8, !tbaa !12
  %28 = load i32, ptr %13, align 4, !tbaa !8
  %29 = icmp eq i32 %28, 0
  br i1 %29, label %30, label %34

30:                                               ; preds = %9
  %31 = load i32, ptr %14, align 4, !tbaa !8
  %32 = icmp eq i32 %31, 1
  br i1 %32, label %33, label %34

33:                                               ; preds = %30
  store i32 1, ptr %23, align 4
  br label %107

34:                                               ; preds = %30, %9
  store i32 4, ptr %20, align 4, !tbaa !8
  store i32 4, ptr %21, align 4, !tbaa !8
  %35 = load i32, ptr %12, align 4, !tbaa !8
  %36 = sub nsw i32 %35, 1
  store i32 %36, ptr %19, align 4, !tbaa !8
  br label %37

37:                                               ; preds = %93, %34
  %38 = load i32, ptr %19, align 4, !tbaa !8
  %39 = icmp sgt i32 %38, 0
  br i1 %39, label %40, label %97

40:                                               ; preds = %37
  %41 = load ptr, ptr %22, align 8, !tbaa !12
  %42 = getelementptr inbounds i32, ptr %41, i64 -1
  store ptr %42, ptr %22, align 8, !tbaa !12
  %43 = load ptr, ptr %22, align 8, !tbaa !12
  %44 = load ptr, ptr %10, align 8, !tbaa !12
  %45 = load i32, ptr %19, align 4, !tbaa !8
  %46 = sext i32 %45 to i64
  %47 = getelementptr inbounds i32, ptr %44, i64 %46
  %48 = load i32, ptr %13, align 4, !tbaa !8
  %49 = sext i32 %48 to i64
  %50 = sub i64 0, %49
  %51 = getelementptr inbounds i32, ptr %47, i64 %50
  %52 = load i32, ptr %20, align 4, !tbaa !8
  %53 = sext i32 %52 to i64
  call void @llvm.memcpy.p0.p0.i64(ptr align 4 %43, ptr align 4 %51, i64 %53, i1 false)
  %54 = load ptr, ptr %22, align 8, !tbaa !12
  %55 = getelementptr inbounds i32, ptr %54, i64 -1
  store ptr %55, ptr %22, align 8, !tbaa !12
  %56 = load ptr, ptr %22, align 8, !tbaa !12
  %57 = load ptr, ptr %10, align 8, !tbaa !12
  %58 = load i32, ptr %19, align 4, !tbaa !8
  %59 = sext i32 %58 to i64
  %60 = getelementptr inbounds i32, ptr %57, i64 %59
  %61 = load i32, ptr %14, align 4, !tbaa !8
  %62 = sext i32 %61 to i64
  %63 = sub i64 0, %62
  %64 = getelementptr inbounds i32, ptr %60, i64 %63
  %65 = load i32, ptr %20, align 4, !tbaa !8
  %66 = sext i32 %65 to i64
  call void @llvm.memcpy.p0.p0.i64(ptr align 4 %56, ptr align 4 %64, i64 %66, i1 false)
  %67 = load ptr, ptr %22, align 8, !tbaa !12
  %68 = getelementptr inbounds i32, ptr %67, i64 -1
  store ptr %68, ptr %22, align 8, !tbaa !12
  %69 = load ptr, ptr %22, align 8, !tbaa !12
  %70 = load ptr, ptr %10, align 8, !tbaa !12
  %71 = load i32, ptr %19, align 4, !tbaa !8
  %72 = sext i32 %71 to i64
  %73 = getelementptr inbounds i32, ptr %70, i64 %72
  %74 = load i32, ptr %15, align 4, !tbaa !8
  %75 = sext i32 %74 to i64
  %76 = sub i64 0, %75
  %77 = getelementptr inbounds i32, ptr %73, i64 %76
  %78 = load i32, ptr %20, align 4, !tbaa !8
  %79 = sext i32 %78 to i64
  call void @llvm.memcpy.p0.p0.i64(ptr align 4 %69, ptr align 4 %77, i64 %79, i1 false)
  %80 = load ptr, ptr %22, align 8, !tbaa !12
  %81 = getelementptr inbounds i32, ptr %80, i64 -1
  store ptr %81, ptr %22, align 8, !tbaa !12
  %82 = load ptr, ptr %22, align 8, !tbaa !12
  %83 = load ptr, ptr %10, align 8, !tbaa !12
  %84 = load i32, ptr %19, align 4, !tbaa !8
  %85 = sext i32 %84 to i64
  %86 = getelementptr inbounds i32, ptr %83, i64 %85
  %87 = load i32, ptr %16, align 4, !tbaa !8
  %88 = sext i32 %87 to i64
  %89 = sub i64 0, %88
  %90 = getelementptr inbounds i32, ptr %86, i64 %89
  %91 = load i32, ptr %20, align 4, !tbaa !8
  %92 = sext i32 %91 to i64
  call void @llvm.memcpy.p0.p0.i64(ptr align 4 %82, ptr align 4 %90, i64 %92, i1 false)
  br label %93

93:                                               ; preds = %40
  %94 = load i32, ptr %21, align 4, !tbaa !8
  %95 = load i32, ptr %19, align 4, !tbaa !8
  %96 = sub nsw i32 %95, %94
  store i32 %96, ptr %19, align 4, !tbaa !8
  br label %37, !llvm.loop !25

97:                                               ; preds = %37
  %98 = load ptr, ptr %10, align 8, !tbaa !12
  %99 = load ptr, ptr %11, align 8, !tbaa !12
  %100 = load i32, ptr %12, align 4, !tbaa !8
  %101 = sext i32 %100 to i64
  %102 = mul i64 %101, 4
  call void @llvm.memcpy.p0.p0.i64(ptr align 4 %98, ptr align 4 %99, i64 %102, i1 false)
  %103 = load i32, ptr %13, align 4, !tbaa !8
  %104 = load i32, ptr %14, align 4, !tbaa !8
  %105 = load ptr, ptr %17, align 8, !tbaa !10
  %106 = load ptr, ptr %18, align 8, !tbaa !12
  call void @updataInfo(i32 noundef %103, i32 noundef %104, i32 noundef 5, ptr noundef %105, ptr noundef %106)
  store i32 0, ptr %23, align 4
  br label %107

107:                                              ; preds = %97, %33
  call void @llvm.lifetime.end.p0(i64 8, ptr %22) #7
  call void @llvm.lifetime.end.p0(i64 4, ptr %21) #7
  call void @llvm.lifetime.end.p0(i64 4, ptr %20) #7
  call void @llvm.lifetime.end.p0(i64 4, ptr %19) #7
  %108 = load i32, ptr %23, align 4
  switch i32 %108, label %110 [
    i32 0, label %109
    i32 1, label %109
  ]

109:                                              ; preds = %107, %107
  ret void

110:                                              ; preds = %107
  unreachable
}

; Function Attrs: nounwind uwtable
define i32 @minTemp1_fast_iVar5(ptr noundef %0, i32 noundef %1, ptr noundef %2) #0 {
  %4 = alloca i32, align 4
  %5 = alloca ptr, align 8
  %6 = alloca i32, align 4
  %7 = alloca ptr, align 8
  %8 = alloca i32, align 4
  %9 = alloca i32, align 4
  %10 = alloca i32, align 4
  store ptr %0, ptr %5, align 8, !tbaa !12
  store i32 %1, ptr %6, align 4, !tbaa !8
  store ptr %2, ptr %7, align 8, !tbaa !12
  call void @llvm.lifetime.start.p0(i64 4, ptr %8) #7
  call void @llvm.lifetime.start.p0(i64 4, ptr %9) #7
  %11 = load i32, ptr %6, align 4, !tbaa !8
  %12 = mul nsw i32 %11, 2
  %13 = sub nsw i32 %12, 2
  store i32 %13, ptr %8, align 4, !tbaa !8
  br label %14

14:                                               ; preds = %46, %3
  %15 = load i32, ptr %8, align 4, !tbaa !8
  %16 = icmp sge i32 %15, 0
  br i1 %16, label %17, label %49

17:                                               ; preds = %14
  %18 = load ptr, ptr %5, align 8, !tbaa !12
  %19 = load i32, ptr %8, align 4, !tbaa !8
  %20 = sext i32 %19 to i64
  %21 = getelementptr inbounds i32, ptr %18, i64 %20
  %22 = load i32, ptr %21, align 4, !tbaa !8
  %23 = zext i32 %22 to i64
  %24 = load ptr, ptr %5, align 8, !tbaa !12
  %25 = load i32, ptr %8, align 4, !tbaa !8
  %26 = sub nsw i32 %25, 1
  %27 = sext i32 %26 to i64
  %28 = getelementptr inbounds i32, ptr %24, i64 %27
  %29 = load i32, ptr %28, align 4, !tbaa !8
  %30 = zext i32 %29 to i64
  %31 = call i32 @CompareWords(i64 noundef %23, i64 noundef %30)
  store i32 %31, ptr %9, align 4, !tbaa !8
  %32 = load i32, ptr %9, align 4, !tbaa !8
  %33 = icmp eq i32 %32, 0
  br i1 %33, label %34, label %35

34:                                               ; preds = %17
  br label %46

35:                                               ; preds = %17
  %36 = load i32, ptr %9, align 4, !tbaa !8
  %37 = icmp eq i32 %36, -1
  br i1 %37, label %38, label %42

38:                                               ; preds = %35
  %39 = load i32, ptr %8, align 4, !tbaa !8
  %40 = add nsw i32 %39, 2
  %41 = load ptr, ptr %7, align 8, !tbaa !12
  store i32 %40, ptr %41, align 4, !tbaa !8
  store i32 1, ptr %4, align 4
  store i32 1, ptr %10, align 4
  br label %51

42:                                               ; preds = %35
  %43 = load i32, ptr %8, align 4, !tbaa !8
  %44 = add nsw i32 %43, 2
  %45 = load ptr, ptr %7, align 8, !tbaa !12
  store i32 %44, ptr %45, align 4, !tbaa !8
  store i32 2, ptr %4, align 4
  store i32 1, ptr %10, align 4
  br label %51

46:                                               ; preds = %34
  %47 = load i32, ptr %8, align 4, !tbaa !8
  %48 = sub nsw i32 %47, 4
  store i32 %48, ptr %8, align 4, !tbaa !8
  br label %14, !llvm.loop !27

49:                                               ; preds = %14
  %50 = load ptr, ptr %7, align 8, !tbaa !12
  store i32 0, ptr %50, align 4, !tbaa !8
  store i32 1, ptr %4, align 4
  store i32 1, ptr %10, align 4
  br label %51

51:                                               ; preds = %49, %42, %38
  call void @llvm.lifetime.end.p0(i64 4, ptr %9) #7
  call void @llvm.lifetime.end.p0(i64 4, ptr %8) #7
  %52 = load i32, ptr %4, align 4
  ret i32 %52
}

; Function Attrs: nounwind uwtable
define void @minimalSwapAndFlipIVar_superFast_iVar5_noEBFC(ptr noundef %0, i32 noundef %1, ptr noundef %2, ptr noundef %3) #0 {
  %5 = alloca ptr, align 8
  %6 = alloca i32, align 4
  %7 = alloca ptr, align 8
  %8 = alloca ptr, align 8
  %9 = alloca i32, align 4
  %10 = alloca [2048 x i32], align 16
  store ptr %0, ptr %5, align 8, !tbaa !12
  store i32 %1, ptr %6, align 4, !tbaa !8
  store ptr %2, ptr %7, align 8, !tbaa !10
  store ptr %3, ptr %8, align 8, !tbaa !12
  call void @llvm.lifetime.start.p0(i64 4, ptr %9) #7
  call void @llvm.lifetime.start.p0(i64 8192, ptr %10) #7
  %11 = load ptr, ptr %5, align 8, !tbaa !12
  %12 = load i32, ptr %6, align 4, !tbaa !8
  %13 = call i32 @minTemp1_fast_iVar5(ptr noundef %11, i32 noundef %12, ptr noundef %9)
  %14 = icmp eq i32 %13, 2
  br i1 %14, label %15, label %21

15:                                               ; preds = %4
  %16 = load ptr, ptr %5, align 8, !tbaa !12
  %17 = getelementptr inbounds [2048 x i32], ptr %10, i64 0, i64 0
  %18 = load i32, ptr %9, align 4, !tbaa !8
  %19 = load ptr, ptr %7, align 8, !tbaa !10
  %20 = load ptr, ptr %8, align 8, !tbaa !12
  call void @arrangeQuoters_superFast_iVar5(ptr noundef %16, ptr noundef %17, i32 noundef %18, i32 noundef 0, i32 noundef 2, i32 noundef 1, i32 noundef 3, ptr noundef %19, ptr noundef %20)
  br label %21

21:                                               ; preds = %15, %4
  call void @llvm.lifetime.end.p0(i64 8192, ptr %10) #7
  call void @llvm.lifetime.end.p0(i64 4, ptr %9) #7
  ret void
}