; Function Attrs: nounwind uwtable
define void @minimalSwapAndFlipIVar_superFast_iVar5_noEBFC(ptr noundef captures(none) %0, i32 noundef %1, ptr noundef %2, ptr noundef captures(none) %3) local_unnamed_addr #0 {
  %5 = alloca [2048 x i32], align 16
  call void @llvm.lifetime.start.p0(i64 8192, ptr nonnull %5) #9
  %6 = icmp sgt i32 %1, 0
  br i1 %6, label %.lr.ph.preheader.i, label %minTemp1_fast_iVar5.exit.thread

.lr.ph.preheader.i:                               ; preds = %4
  %7 = shl nuw i32 %1, 1
  %8 = add i32 %7, -2
  %9 = zext i32 %8 to i64
  br label %.lr.ph.i

.lr.ph.i:                                         ; preds = %16, %.lr.ph.preheader.i
  %indvars.iv.i = phi i64 [ %9, %.lr.ph.preheader.i ], [ %indvars.iv.next.i, %16 ]
  %10 = getelementptr inbounds nuw i32, ptr %0, i64 %indvars.iv.i
  %11 = load i32, ptr %10, align 4, !tbaa !6
  %12 = zext i32 %11 to i64
  %13 = getelementptr i8, ptr %10, i64 -4
  %14 = load i32, ptr %13, align 4, !tbaa !6
  %15 = zext i32 %14 to i64
  %.0.i.i = tail call range(i32 -1, 2) i32 @llvm.ucmp.i32.i64(i64 %12, i64 %15)
  switch i32 %.0.i.i, label %19 [
    i32 0, label %16
    i32 -1, label %minTemp1_fast_iVar5.exit.thread
  ]

16:                                               ; preds = %.lr.ph.i
  %indvars.iv.next.i = add nsw i64 %indvars.iv.i, -4
  %17 = trunc nuw i64 %indvars.iv.i to i32
  %18 = icmp sgt i32 %17, 3
  br i1 %18, label %.lr.ph.i, label %minTemp1_fast_iVar5.exit.thread, !llvm.loop !20

19:                                               ; preds = %.lr.ph.i
  %20 = shl i64 %indvars.iv.i, 32
  %sext = add i64 %20, 8589934592
  %21 = and i64 %indvars.iv.i, 2147483648
  %22 = icmp eq i64 %21, 0
  br i1 %22, label %.lr.ph.i4, label %.arrangeQuoters_superFast_iVar5.exit_crit_edge

.arrangeQuoters_superFast_iVar5.exit_crit_edge:   ; preds = %19
  %.pre = ashr exact i64 %sext, 30
  br label %arrangeQuoters_superFast_iVar5.exit

.lr.ph.i4:                                        ; preds = %19
  %23 = or disjoint i64 %indvars.iv.i, 1
  %24 = ashr exact i64 %sext, 30
  %25 = getelementptr inbounds nuw i8, ptr %5, i64 %24
  br label %26

26:                                               ; preds = %26, %.lr.ph.i4
  %indvars.iv.i5 = phi i64 [ %23, %.lr.ph.i4 ], [ %indvars.iv.next.i6, %26 ]
  %.041.i = phi ptr [ %25, %.lr.ph.i4 ], [ %36, %26 ]
  %27 = getelementptr inbounds i8, ptr %.041.i, i64 -4
  %28 = getelementptr inbounds nuw i32, ptr %0, i64 %indvars.iv.i5
  %29 = load i32, ptr %28, align 4
  store i32 %29, ptr %27, align 4
  %30 = getelementptr inbounds i8, ptr %.041.i, i64 -8
  %31 = getelementptr inbounds i8, ptr %28, i64 -8
  %32 = load i32, ptr %31, align 4
  store i32 %32, ptr %30, align 4
  %33 = getelementptr inbounds i8, ptr %.041.i, i64 -12
  %34 = getelementptr inbounds i8, ptr %28, i64 -4
  %35 = load i32, ptr %34, align 4
  store i32 %35, ptr %33, align 4
  %36 = getelementptr inbounds i8, ptr %.041.i, i64 -16
  %37 = getelementptr inbounds i8, ptr %28, i64 -12
  %38 = load i32, ptr %37, align 4
  store i32 %38, ptr %36, align 4
  %indvars.iv.next.i6 = add nsw i64 %indvars.iv.i5, -4
  %39 = icmp samesign ugt i64 %indvars.iv.i5, 4
  br i1 %39, label %26, label %arrangeQuoters_superFast_iVar5.exit, !llvm.loop !18

arrangeQuoters_superFast_iVar5.exit:              ; preds = %26, %.arrangeQuoters_superFast_iVar5.exit_crit_edge
  %.pre-phi = phi i64 [ %.pre, %.arrangeQuoters_superFast_iVar5.exit_crit_edge ], [ %24, %26 ]
  call void @llvm.memcpy.p0.p0.i64(ptr nonnull align 4 %0, ptr nonnull align 16 %5, i64 %.pre-phi, i1 false)
  %40 = load i32, ptr %3, align 4, !tbaa !6
  %41 = tail call i32 @adjustInfoAfterSwap(ptr noundef %2, i32 noundef %40, i32 noundef 5, i32 noundef 4) #9
  store i32 %41, ptr %3, align 4, !tbaa !6
  br label %minTemp1_fast_iVar5.exit.thread

minTemp1_fast_iVar5.exit.thread:                  ; preds = %.lr.ph.i, %16, %4, %arrangeQuoters_superFast_iVar5.exit
  call void @llvm.lifetime.end.p0(i64 8192, ptr nonnull %5) #9
  ret void
}